#include <math.h>
#include <stdio.h>
#include <stdlib.h>
#include <string.h>

int main()
{
	int n,i,j,m;
	char cz[10000][32];
	scanf("%d",&n);
	for(i=0;i<n;i++)
	{
		scanf("%s",&cz[i]);
        m=strlen(cz[i]);
			if(cz[i][m-1]=='r'&&cz[i][m-2]=='e')
				cz[i][m-2]=0;
		
			if(cz[i][m-1]=='y'&&cz[i][m-2]=='l')
				cz[i][m-2]=0;
			while(m>=4)
			{
			if(cz[i][m-1]=='g'&&cz[i][m-2]=='n'&&cz[i][m-3]=='i')
				cz[i][m-3]=0;
			    break;
			}
	}
	for(j=0;j<n;j++)
	{
		printf("%s\n",cz[j]);
	}
	return 0;
}